target datalayout = "e-m:e-p270:32:32-p271:32:32-p272:64:64-i64:64-i128:128-f80:128-n8:16:32:64-S128"
target triple = "x86_64-pc-linux-gnu"

%struct.AVPacket = type { ptr, i64, i64, ptr, i32, i32, i32, ptr, i32, i64, i64, ptr, ptr, %struct.AVRational }
%struct.AVRational = type { i32, i32 }
%struct.AVStream = type { ptr, i32, i32, ptr, ptr, %struct.AVRational, i64, i64, i64, i32, i32, %struct.AVRational, ptr, %struct.AVRational, %struct.AVPacket, i32, %struct.AVRational, i32 }
%struct.AVCodecParameters = type { i32, i32, i32, ptr, i32, ptr, i32, i32, i64, i32, i32, i32, i32, i32, i32, %struct.AVRational, %struct.AVRational, i32, i32, i32, i32, i32, i32, i32, %struct.AVChannelLayout, i32, i32, i32, i32, i32, i32 }
%struct.AVChannelLayout = type { i32, i32, %union.anon.0, ptr }
%union.anon.0 = type { i64 }
%struct.Entry = type { i32, ptr, i8, i8 }

; Function Attrs: alwaysinline nounwind willreturn memory(none) uwtable
define internal i32 @av_bswap32(i32 noundef %0) #1 {
  %2 = alloca i32, align 4
  store i32 %0, ptr %2, align 4, !tbaa !59
  %3 = load i32, ptr %2, align 4, !tbaa !59
  %4 = shl i32 %3, 8
  %5 = and i32 %4, 65280
  %6 = load i32, ptr %2, align 4, !tbaa !59
  %7 = lshr i32 %6, 8
  %8 = and i32 %7, 255
  %9 = or i32 %5, %8
  %10 = shl i32 %9, 16
  %11 = load i32, ptr %2, align 4, !tbaa !59
  %12 = lshr i32 %11, 16
  %13 = shl i32 %12, 8
  %14 = and i32 %13, 65280
  %15 = load i32, ptr %2, align 4, !tbaa !59
  %16 = lshr i32 %15, 16
  %17 = lshr i32 %16, 8
  %18 = and i32 %17, 255
  %19 = or i32 %14, %18
  %20 = or i32 %10, %19
  ret i32 %20
}

; Function Attrs: nounwind uwtable
define internal i32 @mpegts_check_bitstream(ptr noundef %0, ptr noundef %1, ptr noundef %2) #0 {
  %4 = alloca i32, align 4
  %5 = alloca ptr, align 8
  %6 = alloca ptr, align 8
  %7 = alloca ptr, align 8
  %8 = alloca [3 x %struct.Entry], align 16
  %9 = alloca i32, align 4
  %10 = alloca i32, align 4
  %11 = alloca ptr, align 8
  store ptr %0, ptr %5, align 8, !tbaa !4
  store ptr %1, ptr %6, align 8, !tbaa !9
  store ptr %2, ptr %7, align 8, !tbaa !11
  call void @llvm.lifetime.start.p0(i64 72, ptr %8) #13
  call void @llvm.memcpy.p0.p0.i64(ptr align 16 %8, ptr align 16 @__const.mpegts_check_bitstream.list, i64 72, i1 false)
  call void @llvm.lifetime.start.p0(i64 4, ptr %9) #13
  store i32 0, ptr %9, align 4, !tbaa !59
  br label %12

12:                                               ; preds = %103, %3
  %13 = load i32, ptr %9, align 4, !tbaa !59
  %14 = sext i32 %13 to i64
  %15 = icmp ult i64 %14, 3
  br i1 %15, label %17, label %16

16:                                               ; preds = %12
  store i32 2, ptr %10, align 4
  br label %106

17:                                               ; preds = %12
  call void @llvm.lifetime.start.p0(i64 8, ptr %11) #13
  %18 = getelementptr inbounds [3 x %struct.Entry], ptr %8, i64 0, i64 0
  %19 = load i32, ptr %9, align 4, !tbaa !59
  %20 = sext i32 %19 to i64
  %21 = getelementptr inbounds %struct.Entry, ptr %18, i64 %20
  store ptr %21, ptr %11, align 8, !tbaa !145
  %22 = load ptr, ptr %11, align 8, !tbaa !145
  %23 = getelementptr inbounds nuw %struct.Entry, ptr %22, i32 0, i32 0
  %24 = load i32, ptr %23, align 8, !tbaa !147
  %25 = load ptr, ptr %6, align 8, !tbaa !9
  %26 = getelementptr inbounds nuw %struct.AVStream, ptr %25, i32 0, i32 3
  %27 = load ptr, ptr %26, align 8, !tbaa !99
  %28 = getelementptr inbounds nuw %struct.AVCodecParameters, ptr %27, i32 0, i32 1
  %29 = load i32, ptr %28, align 4, !tbaa !104
  %30 = icmp eq i32 %24, %29
  br i1 %30, label %31, label %99

31:                                               ; preds = %17
  %32 = load ptr, ptr %7, align 8, !tbaa !11
  %33 = getelementptr inbounds nuw %struct.AVPacket, ptr %32, i32 0, i32 4
  %34 = load i32, ptr %33, align 8, !tbaa !15
  %35 = icmp sge i32 %34, 5
  br i1 %35, label %36, label %99

36:                                               ; preds = %31
  %37 = load ptr, ptr %7, align 8, !tbaa !11
  %38 = getelementptr inbounds nuw %struct.AVPacket, ptr %37, i32 0, i32 3
  %39 = load ptr, ptr %38, align 8, !tbaa !22
  %40 = load i32, ptr %39, align 1, !tbaa !23
  %41 = call i32 @av_bswap32(i32 noundef %40) #12
  %42 = icmp ne i32 %41, 1
  br i1 %42, label %43, label %99

43:                                               ; preds = %36
  %44 = load ptr, ptr %7, align 8, !tbaa !11
  %45 = getelementptr inbounds nuw %struct.AVPacket, ptr %44, i32 0, i32 3
  %46 = load ptr, ptr %45, align 8, !tbaa !22
  %47 = getelementptr inbounds i8, ptr %46, i64 0
  %48 = load i8, ptr %47, align 1, !tbaa !23
  %49 = zext i8 %48 to i32
  %50 = shl i32 %49, 16
  %51 = load ptr, ptr %7, align 8, !tbaa !11
  %52 = getelementptr inbounds nuw %struct.AVPacket, ptr %51, i32 0, i32 3
  %53 = load ptr, ptr %52, align 8, !tbaa !22
  %54 = getelementptr inbounds i8, ptr %53, i64 1
  %55 = load i8, ptr %54, align 1, !tbaa !23
  %56 = zext i8 %55 to i32
  %57 = shl i32 %56, 8
  %58 = or i32 %50, %57
  %59 = load ptr, ptr %7, align 8, !tbaa !11
  %60 = getelementptr inbounds nuw %struct.AVPacket, ptr %59, i32 0, i32 3
  %61 = load ptr, ptr %60, align 8, !tbaa !22
  %62 = getelementptr inbounds i8, ptr %61, i64 2
  %63 = load i8, ptr %62, align 1, !tbaa !23
  %64 = zext i8 %63 to i32
  %65 = or i32 %58, %64
  %66 = icmp ne i32 %65, 1
  br i1 %66, label %93, label %67

67:                                               ; preds = %43
  %68 = load ptr, ptr %6, align 8, !tbaa !9
  %69 = getelementptr inbounds nuw %struct.AVStream, ptr %68, i32 0, i32 3
  %70 = load ptr, ptr %69, align 8, !tbaa !99
  %71 = getelementptr inbounds nuw %struct.AVCodecParameters, ptr %70, i32 0, i32 4
  %72 = load i32, ptr %71, align 8, !tbaa !119
  %73 = icmp sgt i32 %72, 0
  br i1 %73, label %74, label %99

74:                                               ; preds = %67
  %75 = load ptr, ptr %6, align 8, !tbaa !9
  %76 = getelementptr inbounds nuw %struct.AVStream, ptr %75, i32 0, i32 3
  %77 = load ptr, ptr %76, align 8, !tbaa !99
  %78 = getelementptr inbounds nuw %struct.AVCodecParameters, ptr %77, i32 0, i32 3
  %79 = load ptr, ptr %78, align 8, !tbaa !149
  %80 = getelementptr inbounds i8, ptr %79, i64 0
  %81 = load i8, ptr %80, align 1, !tbaa !23
  %82 = zext i8 %81 to i32
  %83 = load ptr, ptr %11, align 8, !tbaa !145
  %84 = getelementptr inbounds nuw %struct.Entry, ptr %83, i32 0, i32 2
  %85 = load i8, ptr %84, align 8, !tbaa !150
  %86 = zext i8 %85 to i32
  %87 = and i32 %82, %86
  %88 = load ptr, ptr %11, align 8, !tbaa !145
  %89 = getelementptr inbounds nuw %struct.Entry, ptr %88, i32 0, i32 3
  %90 = load i8, ptr %89, align 1, !tbaa !151
  %91 = zext i8 %90 to i32
  %92 = icmp eq i32 %87, %91
  br i1 %92, label %93, label %99

93:                                               ; preds = %74, %43
  %94 = load ptr, ptr %6, align 8, !tbaa !9
  %95 = load ptr, ptr %11, align 8, !tbaa !145
  %96 = getelementptr inbounds nuw %struct.Entry, ptr %95, i32 0, i32 1
  %97 = load ptr, ptr %96, align 8, !tbaa !152
  %98 = call i32 @ff_stream_add_bitstream_filter(ptr noundef %94, ptr noundef %97, ptr noundef null)
  store i32 %98, ptr %4, align 4
  store i32 1, ptr %10, align 4
  br label %100

99:                                               ; preds = %74, %67, %36, %31, %17
  store i32 0, ptr %10, align 4
  br label %100

100:                                              ; preds = %99, %93
  call void @llvm.lifetime.end.p0(i64 8, ptr %11) #13
  %101 = load i32, ptr %10, align 4
  switch i32 %101, label %106 [
    i32 0, label %102
  ]

102:                                              ; preds = %100
  br label %103

103:                                              ; preds = %102
  %104 = load i32, ptr %9, align 4, !tbaa !59
  %105 = add nsw i32 %104, 1
  store i32 %105, ptr %9, align 4, !tbaa !59
  br label %12, !llvm.loop !153

106:                                              ; preds = %100, %16
  call void @llvm.lifetime.end.p0(i64 4, ptr %9) #13
  %107 = load i32, ptr %10, align 4
  switch i32 %107, label %109 [
    i32 2, label %108
  ]

108:                                              ; preds = %106
  store i32 1, ptr %4, align 4
  store i32 1, ptr %10, align 4
  br label %109

109:                                              ; preds = %108, %106
  call void @llvm.lifetime.end.p0(i64 72, ptr %8) #13
  %110 = load i32, ptr %4, align 4
  ret i32 %110
}