; Function Attrs: nounwind uwtable
define internal i32 @mpegts_check_bitstream(ptr readnone captures(none) %0, ptr noundef %1, ptr noundef readonly captures(none) %2) #0 {
  %4 = getelementptr inbounds nuw i8, ptr %1, i64 16
  %5 = load ptr, ptr %4, align 8, !tbaa !54
  %6 = getelementptr inbounds nuw i8, ptr %5, i64 4
  %7 = load i32, ptr %6, align 4, !tbaa !55
  %8 = getelementptr inbounds nuw i8, ptr %2, i64 32
  %9 = getelementptr inbounds nuw i8, ptr %2, i64 24
  %10 = getelementptr inbounds nuw i8, ptr %5, i64 24
  %11 = getelementptr inbounds nuw i8, ptr %5, i64 16
  br label %12

12:                                               ; preds = %3, %46
  %indvars.iv = phi i64 [ 0, %3 ], [ %indvars.iv.next, %46 ]
  %13 = getelementptr inbounds nuw %struct.Entry, ptr @__const.mpegts_check_bitstream.list, i64 %indvars.iv
  %14 = load i32, ptr %13, align 8, !tbaa !178
  %15 = icmp eq i32 %14, %7
  br i1 %15, label %16, label %46

16:                                               ; preds = %12
  %17 = load i32, ptr %8, align 8, !tbaa !4
  %18 = icmp sgt i32 %17, 4
  br i1 %18, label %19, label %46

19:                                               ; preds = %16
  %20 = load ptr, ptr %9, align 8, !tbaa !15
  %21 = load i32, ptr %20, align 1
  %.not = icmp eq i32 %21, 16777216
  br i1 %.not, label %46, label %22

22:                                               ; preds = %19
  %23 = lshr i32 %21, 16
  %24 = shl i32 %21, 16
  %25 = and i32 %24, 16711680
  %26 = and i32 %21, 65280
  %27 = or disjoint i32 %26, %25
  %28 = and i32 %23, 255
  %29 = or disjoint i32 %27, %28
  %.not23 = icmp eq i32 %29, 1
  br i1 %.not23, label %30, label %42

30:                                               ; preds = %22
  %31 = load i32, ptr %10, align 8, !tbaa !60
  %32 = icmp sgt i32 %31, 0
  br i1 %32, label %33, label %46

33:                                               ; preds = %30
  %34 = load ptr, ptr %11, align 8, !tbaa !61
  %35 = load i8, ptr %34, align 1, !tbaa !21
  %36 = getelementptr inbounds nuw i8, ptr %13, i64 16
  %37 = load i8, ptr %36, align 8, !tbaa !180
  %38 = and i8 %37, %35
  %39 = getelementptr inbounds nuw i8, ptr %13, i64 17
  %40 = load i8, ptr %39, align 1, !tbaa !181
  %41 = icmp eq i8 %38, %40
  br i1 %41, label %42, label %46

42:                                               ; preds = %22, %33
  %43 = getelementptr inbounds nuw i8, ptr %13, i64 8
  %44 = load ptr, ptr %43, align 8, !tbaa !182
  %45 = tail call i32 @ff_stream_add_bitstream_filter(ptr noundef %1, ptr noundef %44, ptr noundef null) #12
  br label %.loopexit

46:                                               ; preds = %33, %30, %19, %16, %12
  %indvars.iv.next = add nuw nsw i64 %indvars.iv, 1
  %exitcond = icmp eq i64 %indvars.iv.next, 3
  br i1 %exitcond, label %.loopexit, label %12, !llvm.loop !183

.loopexit:                                        ; preds = %46, %42
  %spec.select = phi i32 [ %45, %42 ], [ 1, %46 ]
  ret i32 %spec.select
}